(dp0
S'token'
p1
ccopy_reg
_reconstructor
p2
(cuuid
UUID
p3
c__builtin__
object
p4
Ntp5
Rp6
(dp7
S'int'
p8
L108292820688043803936557810813696579995L
sbsS'tom'
p9
(dp10
S'field'
p11
(ifield
Field
p12
(dp13
S'grid'
p14
(lp15
(lp16
(ifield
Tile
p17
(dp18
S'tile_contents'
p19
S'water'
p20
sS'is_hit'
p21
I00
sS'coord_y'
p22
I0
sS'coord_x'
p23
I0
sba(ifield
Tile
p24
(dp25
g19
g20
sg21
I00
sg22
I0
sg23
I0
sba(ifield
Tile
p26
(dp27
g19
g20
sg21
I00
sg22
I0
sg23
I0
sba(ifield
Tile
p28
(dp29
g19
g20
sg21
I00
sg22
I0
sg23
I0
sba(ifield
Tile
p30
(dp31
g19
g20
sg21
I00
sg22
I0
sg23
I0
sba(ifield
Tile
p32
(dp33
g19
g20
sg21
I00
sg22
I0
sg23
I0
sba(ifield
Tile
p34
(dp35
g19
g20
sg21
I00
sg22
I0
sg23
I0
sba(ifield
Tile
p36
(dp37
g19
g20
sg21
I00
sg22
I0
sg23
I0
sba(ifield
Tile
p38
(dp39
g19
g20
sg21
I00
sg22
I0
sg23
I0
sba(ifield
Tile
p40
(dp41
g19
g20
sg21
I00
sg22
I0
sg23
I0
sbaa(lp42
(ifield
Tile
p43
(dp44
g19
g20
sg21
I00
sg22
I0
sg23
I0
sba(ifield
Tile
p45
(dp46
g19
g20
sg21
I00
sg22
I0
sg23
I0
sba(ifield
Tile
p47
(dp48
g19
g20
sg21
I00
sg22
I0
sg23
I0
sba(ifield
Tile
p49
(dp50
g19
g20
sg21
I00
sg22
I0
sg23
I0
sba(ifield
Tile
p51
(dp52
g19
g20
sg21
I00
sg22
I0
sg23
I0
sba(ifield
Tile
p53
(dp54
g19
g20
sg21
I00
sg22
I0
sg23
I0
sba(ifield
Tile
p55
(dp56
g19
g20
sg21
I00
sg22
I0
sg23
I0
sba(ifield
Tile
p57
(dp58
g19
g20
sg21
I00
sg22
I0
sg23
I0
sba(ifield
Tile
p59
(dp60
g19
g20
sg21
I00
sg22
I0
sg23
I0
sba(ifield
Tile
p61
(dp62
g19
g20
sg21
I00
sg22
I0
sg23
I0
sbaa(lp63
(ifield
Tile
p64
(dp65
g19
g20
sg21
I00
sg22
I0
sg23
I0
sba(ifield
Tile
p66
(dp67
g19
g20
sg21
I00
sg22
I0
sg23
I0
sba(ifield
Tile
p68
(dp69
g19
g20
sg21
I00
sg22
I0
sg23
I0
sba(ifield
Tile
p70
(dp71
g19
g20
sg21
I00
sg22
I0
sg23
I0
sba(ifield
Tile
p72
(dp73
g19
g20
sg21
I00
sg22
I0
sg23
I0
sba(ifield
Tile
p74
(dp75
g19
g20
sg21
I00
sg22
I0
sg23
I0
sba(ifield
Tile
p76
(dp77
g19
g20
sg21
I00
sg22
I0
sg23
I0
sba(ifield
Tile
p78
(dp79
g19
g20
sg21
I00
sg22
I0
sg23
I0
sba(ifield
Tile
p80
(dp81
g19
g20
sg21
I00
sg22
I0
sg23
I0
sba(ifield
Tile
p82
(dp83
g19
g20
sg21
I00
sg22
I0
sg23
I0
sbaa(lp84
(ifield
Tile
p85
(dp86
g19
g20
sg21
I00
sg22
I0
sg23
I0
sba(ifield
Tile
p87
(dp88
g19
g20
sg21
I00
sg22
I0
sg23
I0
sba(ifield
Tile
p89
(dp90
g19
g20
sg21
I00
sg22
I0
sg23
I0
sba(ifield
Tile
p91
(dp92
g19
g20
sg21
I00
sg22
I0
sg23
I0
sba(ifield
Tile
p93
(dp94
g19
g20
sg21
I00
sg22
I0
sg23
I0
sba(ifield
Tile
p95
(dp96
g19
g20
sg21
I00
sg22
I0
sg23
I0
sba(ifield
Tile
p97
(dp98
g19
g20
sg21
I00
sg22
I0
sg23
I0
sba(ifield
Tile
p99
(dp100
g19
g20
sg21
I00
sg22
I0
sg23
I0
sba(ifield
Tile
p101
(dp102
g19
g20
sg21
I00
sg22
I0
sg23
I0
sba(ifield
Tile
p103
(dp104
g19
g20
sg21
I00
sg22
I0
sg23
I0
sbaa(lp105
(ifield
Tile
p106
(dp107
g19
g20
sg21
I00
sg22
I0
sg23
I0
sba(ifield
Tile
p108
(dp109
g19
g20
sg21
I00
sg22
I0
sg23
I0
sba(ifield
Tile
p110
(dp111
g19
g20
sg21
I00
sg22
I0
sg23
I0
sba(ifield
Tile
p112
(dp113
g19
g20
sg21
I00
sg22
I0
sg23
I0
sba(ifield
Tile
p114
(dp115
g19
g20
sg21
I00
sg22
I0
sg23
I0
sba(ifield
Tile
p116
(dp117
g19
g20
sg21
I00
sg22
I0
sg23
I0
sba(ifield
Tile
p118
(dp119
g19
g20
sg21
I00
sg22
I0
sg23
I0
sba(ifield
Tile
p120
(dp121
g19
g20
sg21
I00
sg22
I0
sg23
I0
sba(ifield
Tile
p122
(dp123
g19
g20
sg21
I00
sg22
I0
sg23
I0
sba(ifield
Tile
p124
(dp125
g19
g20
sg21
I00
sg22
I0
sg23
I0
sbaa(lp126
(ifield
Tile
p127
(dp128
g19
g20
sg21
I00
sg22
I0
sg23
I0
sba(ifield
Tile
p129
(dp130
g19
g20
sg21
I00
sg22
I0
sg23
I0
sba(ifield
Tile
p131
(dp132
g19
g20
sg21
I00
sg22
I0
sg23
I0
sba(ifield
Tile
p133
(dp134
g19
g20
sg21
I00
sg22
I0
sg23
I0
sba(ifield
Tile
p135
(dp136
g19
g20
sg21
I00
sg22
I0
sg23
I0
sba(ifield
Tile
p137
(dp138
g19
g20
sg21
I00
sg22
I0
sg23
I0
sba(ifield
Tile
p139
(dp140
g19
g20
sg21
I00
sg22
I0
sg23
I0
sba(ifield
Tile
p141
(dp142
g19
g20
sg21
I00
sg22
I0
sg23
I0
sba(ifield
Tile
p143
(dp144
g19
g20
sg21
I00
sg22
I0
sg23
I0
sba(ifield
Tile
p145
(dp146
g19
g20
sg21
I00
sg22
I0
sg23
I0
sbaa(lp147
(ifield
Tile
p148
(dp149
g19
g20
sg21
I00
sg22
I0
sg23
I0
sba(ifield
Tile
p150
(dp151
g19
g20
sg21
I00
sg22
I0
sg23
I0
sba(ifield
Tile
p152
(dp153
g19
g20
sg21
I00
sg22
I0
sg23
I0
sba(ifield
Tile
p154
(dp155
g19
g20
sg21
I00
sg22
I0
sg23
I0
sba(ifield
Tile
p156
(dp157
g19
g20
sg21
I00
sg22
I0
sg23
I0
sba(ifield
Tile
p158
(dp159
g19
g20
sg21
I00
sg22
I0
sg23
I0
sba(ifield
Tile
p160
(dp161
g19
g20
sg21
I00
sg22
I0
sg23
I0
sba(ifield
Tile
p162
(dp163
g19
g20
sg21
I00
sg22
I0
sg23
I0
sba(ifield
Tile
p164
(dp165
g19
g20
sg21
I00
sg22
I0
sg23
I0
sba(ifield
Tile
p166
(dp167
g19
g20
sg21
I00
sg22
I0
sg23
I0
sbaa(lp168
(ifield
Tile
p169
(dp170
g19
g20
sg21
I00
sg22
I0
sg23
I0
sba(ifield
Tile
p171
(dp172
g19
g20
sg21
I00
sg22
I0
sg23
I0
sba(ifield
Tile
p173
(dp174
g19
g20
sg21
I00
sg22
I0
sg23
I0
sba(ifield
Tile
p175
(dp176
g19
g20
sg21
I00
sg22
I0
sg23
I0
sba(ifield
Tile
p177
(dp178
g19
g20
sg21
I00
sg22
I0
sg23
I0
sba(ifield
Tile
p179
(dp180
g19
g20
sg21
I00
sg22
I0
sg23
I0
sba(ifield
Tile
p181
(dp182
g19
g20
sg21
I00
sg22
I0
sg23
I0
sba(ifield
Tile
p183
(dp184
g19
g20
sg21
I00
sg22
I0
sg23
I0
sba(ifield
Tile
p185
(dp186
g19
g20
sg21
I00
sg22
I0
sg23
I0
sba(ifield
Tile
p187
(dp188
g19
g20
sg21
I00
sg22
I0
sg23
I0
sbaa(lp189
(ifield
Tile
p190
(dp191
g19
g20
sg21
I00
sg22
I0
sg23
I0
sba(ifield
Tile
p192
(dp193
g19
g20
sg21
I00
sg22
I0
sg23
I0
sba(ifield
Tile
p194
(dp195
g19
g20
sg21
I00
sg22
I0
sg23
I0
sba(ifield
Tile
p196
(dp197
g19
g20
sg21
I00
sg22
I0
sg23
I0
sba(ifield
Tile
p198
(dp199
g19
g20
sg21
I00
sg22
I0
sg23
I0
sba(ifield
Tile
p200
(dp201
g19
g20
sg21
I00
sg22
I0
sg23
I0
sba(ifield
Tile
p202
(dp203
g19
g20
sg21
I00
sg22
I0
sg23
I0
sba(ifield
Tile
p204
(dp205
g19
g20
sg21
I00
sg22
I0
sg23
I0
sba(ifield
Tile
p206
(dp207
g19
g20
sg21
I00
sg22
I0
sg23
I0
sba(ifield
Tile
p208
(dp209
g19
g20
sg21
I00
sg22
I0
sg23
I0
sbaa(lp210
(ifield
Tile
p211
(dp212
g19
g20
sg21
I00
sg22
I0
sg23
I0
sba(ifield
Tile
p213
(dp214
g19
g20
sg21
I00
sg22
I0
sg23
I0
sba(ifield
Tile
p215
(dp216
g19
g20
sg21
I00
sg22
I0
sg23
I0
sba(ifield
Tile
p217
(dp218
g19
g20
sg21
I00
sg22
I0
sg23
I0
sba(ifield
Tile
p219
(dp220
g19
g20
sg21
I00
sg22
I0
sg23
I0
sba(ifield
Tile
p221
(dp222
g19
g20
sg21
I00
sg22
I0
sg23
I0
sba(ifield
Tile
p223
(dp224
g19
g20
sg21
I00
sg22
I0
sg23
I0
sba(ifield
Tile
p225
(dp226
g19
g20
sg21
I00
sg22
I0
sg23
I0
sba(ifield
Tile
p227
(dp228
g19
g20
sg21
I00
sg22
I0
sg23
I0
sba(ifield
Tile
p229
(dp230
g19
g20
sg21
I00
sg22
I0
sg23
I0
sbaasbsS'name'
p231
g9
ssS'id'
p232
S"UUID('e87bdfcc-3e10-4957-9d72-32d507a6d7ca')"
p233
sS'kate'
p234
(dp235
g11
(ifield
Field
p236
(dp237
g14
(lp238
(lp239
(ifield
Tile
p240
(dp241
g19
g20
sg21
I00
sg22
I0
sg23
I0
sba(ifield
Tile
p242
(dp243
g19
g20
sg21
I00
sg22
I0
sg23
I0
sba(ifield
Tile
p244
(dp245
g19
g20
sg21
I00
sg22
I0
sg23
I0
sba(ifield
Tile
p246
(dp247
g19
g20
sg21
I00
sg22
I0
sg23
I0
sba(ifield
Tile
p248
(dp249
g19
g20
sg21
I00
sg22
I0
sg23
I0
sba(ifield
Tile
p250
(dp251
g19
g20
sg21
I00
sg22
I0
sg23
I0
sba(ifield
Tile
p252
(dp253
g19
g20
sg21
I00
sg22
I0
sg23
I0
sba(ifield
Tile
p254
(dp255
g19
g20
sg21
I00
sg22
I0
sg23
I0
sba(ifield
Tile
p256
(dp257
g19
g20
sg21
I00
sg22
I0
sg23
I0
sba(ifield
Tile
p258
(dp259
g19
g20
sg21
I00
sg22
I0
sg23
I0
sbaa(lp260
(ifield
Tile
p261
(dp262
g19
g20
sg21
I00
sg22
I0
sg23
I0
sba(ifield
Tile
p263
(dp264
g19
g20
sg21
I00
sg22
I0
sg23
I0
sba(ifield
Tile
p265
(dp266
g19
g20
sg21
I00
sg22
I0
sg23
I0
sba(ifield
Tile
p267
(dp268
g19
g20
sg21
I00
sg22
I0
sg23
I0
sba(ifield
Tile
p269
(dp270
g19
g20
sg21
I00
sg22
I0
sg23
I0
sba(ifield
Tile
p271
(dp272
g19
g20
sg21
I00
sg22
I0
sg23
I0
sba(ifield
Tile
p273
(dp274
g19
g20
sg21
I00
sg22
I0
sg23
I0
sba(ifield
Tile
p275
(dp276
g19
g20
sg21
I00
sg22
I0
sg23
I0
sba(ifield
Tile
p277
(dp278
g19
g20
sg21
I00
sg22
I0
sg23
I0
sba(ifield
Tile
p279
(dp280
g19
g20
sg21
I00
sg22
I0
sg23
I0
sbaa(lp281
(ifield
Tile
p282
(dp283
g19
g20
sg21
I00
sg22
I0
sg23
I0
sba(ifield
Tile
p284
(dp285
g19
g20
sg21
I00
sg22
I0
sg23
I0
sba(ifield
Tile
p286
(dp287
g19
g20
sg21
I00
sg22
I0
sg23
I0
sba(ifield
Tile
p288
(dp289
g19
g20
sg21
I00
sg22
I0
sg23
I0
sba(ifield
Tile
p290
(dp291
g19
g20
sg21
I00
sg22
I0
sg23
I0
sba(ifield
Tile
p292
(dp293
g19
g20
sg21
I00
sg22
I0
sg23
I0
sba(ifield
Tile
p294
(dp295
g19
g20
sg21
I00
sg22
I0
sg23
I0
sba(ifield
Tile
p296
(dp297
g19
g20
sg21
I00
sg22
I0
sg23
I0
sba(ifield
Tile
p298
(dp299
g19
g20
sg21
I00
sg22
I0
sg23
I0
sba(ifield
Tile
p300
(dp301
g19
g20
sg21
I00
sg22
I0
sg23
I0
sbaa(lp302
(ifield
Tile
p303
(dp304
g19
g20
sg21
I00
sg22
I0
sg23
I0
sba(ifield
Tile
p305
(dp306
g19
g20
sg21
I00
sg22
I0
sg23
I0
sba(ifield
Tile
p307
(dp308
g19
g20
sg21
I00
sg22
I0
sg23
I0
sba(ifield
Tile
p309
(dp310
g19
g20
sg21
I00
sg22
I0
sg23
I0
sba(ifield
Tile
p311
(dp312
g19
g20
sg21
I00
sg22
I0
sg23
I0
sba(ifield
Tile
p313
(dp314
g19
g20
sg21
I00
sg22
I0
sg23
I0
sba(ifield
Tile
p315
(dp316
g19
g20
sg21
I00
sg22
I0
sg23
I0
sba(ifield
Tile
p317
(dp318
g19
g20
sg21
I00
sg22
I0
sg23
I0
sba(ifield
Tile
p319
(dp320
g19
g20
sg21
I00
sg22
I0
sg23
I0
sba(ifield
Tile
p321
(dp322
g19
g20
sg21
I00
sg22
I0
sg23
I0
sbaa(lp323
(ifield
Tile
p324
(dp325
g19
g20
sg21
I00
sg22
I0
sg23
I0
sba(ifield
Tile
p326
(dp327
g19
g20
sg21
I00
sg22
I0
sg23
I0
sba(ifield
Tile
p328
(dp329
g19
g20
sg21
I00
sg22
I0
sg23
I0
sba(ifield
Tile
p330
(dp331
g19
g20
sg21
I00
sg22
I0
sg23
I0
sba(ifield
Tile
p332
(dp333
g19
g20
sg21
I00
sg22
I0
sg23
I0
sba(ifield
Tile
p334
(dp335
g19
g20
sg21
I00
sg22
I0
sg23
I0
sba(ifield
Tile
p336
(dp337
g19
g20
sg21
I00
sg22
I0
sg23
I0
sba(ifield
Tile
p338
(dp339
g19
g20
sg21
I00
sg22
I0
sg23
I0
sba(ifield
Tile
p340
(dp341
g19
g20
sg21
I00
sg22
I0
sg23
I0
sba(ifield
Tile
p342
(dp343
g19
g20
sg21
I00
sg22
I0
sg23
I0
sbaa(lp344
(ifield
Tile
p345
(dp346
g19
g20
sg21
I00
sg22
I0
sg23
I0
sba(ifield
Tile
p347
(dp348
g19
g20
sg21
I00
sg22
I0
sg23
I0
sba(ifield
Tile
p349
(dp350
g19
g20
sg21
I00
sg22
I0
sg23
I0
sba(ifield
Tile
p351
(dp352
g19
g20
sg21
I00
sg22
I0
sg23
I0
sba(ifield
Tile
p353
(dp354
g19
g20
sg21
I00
sg22
I0
sg23
I0
sba(ifield
Tile
p355
(dp356
g19
g20
sg21
I00
sg22
I0
sg23
I0
sba(ifield
Tile
p357
(dp358
g19
g20
sg21
I00
sg22
I0
sg23
I0
sba(ifield
Tile
p359
(dp360
g19
g20
sg21
I00
sg22
I0
sg23
I0
sba(ifield
Tile
p361
(dp362
g19
g20
sg21
I00
sg22
I0
sg23
I0
sba(ifield
Tile
p363
(dp364
g19
g20
sg21
I00
sg22
I0
sg23
I0
sbaa(lp365
(ifield
Tile
p366
(dp367
g19
g20
sg21
I00
sg22
I0
sg23
I0
sba(ifield
Tile
p368
(dp369
g19
g20
sg21
I00
sg22
I0
sg23
I0
sba(ifield
Tile
p370
(dp371
g19
g20
sg21
I00
sg22
I0
sg23
I0
sba(ifield
Tile
p372
(dp373
g19
g20
sg21
I00
sg22
I0
sg23
I0
sba(ifield
Tile
p374
(dp375
g19
g20
sg21
I00
sg22
I0
sg23
I0
sba(ifield
Tile
p376
(dp377
g19
g20
sg21
I00
sg22
I0
sg23
I0
sba(ifield
Tile
p378
(dp379
g19
g20
sg21
I00
sg22
I0
sg23
I0
sba(ifield
Tile
p380
(dp381
g19
g20
sg21
I00
sg22
I0
sg23
I0
sba(ifield
Tile
p382
(dp383
g19
g20
sg21
I00
sg22
I0
sg23
I0
sba(ifield
Tile
p384
(dp385
g19
g20
sg21
I00
sg22
I0
sg23
I0
sbaa(lp386
(ifield
Tile
p387
(dp388
g19
g20
sg21
I00
sg22
I0
sg23
I0
sba(ifield
Tile
p389
(dp390
g19
g20
sg21
I00
sg22
I0
sg23
I0
sba(ifield
Tile
p391
(dp392
g19
g20
sg21
I00
sg22
I0
sg23
I0
sba(ifield
Tile
p393
(dp394
g19
g20
sg21
I00
sg22
I0
sg23
I0
sba(ifield
Tile
p395
(dp396
g19
g20
sg21
I00
sg22
I0
sg23
I0
sba(ifield
Tile
p397
(dp398
g19
g20
sg21
I00
sg22
I0
sg23
I0
sba(ifield
Tile
p399
(dp400
g19
g20
sg21
I00
sg22
I0
sg23
I0
sba(ifield
Tile
p401
(dp402
g19
g20
sg21
I00
sg22
I0
sg23
I0
sba(ifield
Tile
p403
(dp404
g19
g20
sg21
I00
sg22
I0
sg23
I0
sba(ifield
Tile
p405
(dp406
g19
g20
sg21
I00
sg22
I0
sg23
I0
sbaa(lp407
(ifield
Tile
p408
(dp409
g19
g20
sg21
I00
sg22
I0
sg23
I0
sba(ifield
Tile
p410
(dp411
g19
g20
sg21
I00
sg22
I0
sg23
I0
sba(ifield
Tile
p412
(dp413
g19
g20
sg21
I00
sg22
I0
sg23
I0
sba(ifield
Tile
p414
(dp415
g19
g20
sg21
I00
sg22
I0
sg23
I0
sba(ifield
Tile
p416
(dp417
g19
g20
sg21
I00
sg22
I0
sg23
I0
sba(ifield
Tile
p418
(dp419
g19
g20
sg21
I00
sg22
I0
sg23
I0
sba(ifield
Tile
p420
(dp421
g19
g20
sg21
I00
sg22
I0
sg23
I0
sba(ifield
Tile
p422
(dp423
g19
g20
sg21
I00
sg22
I0
sg23
I0
sba(ifield
Tile
p424
(dp425
g19
g20
sg21
I00
sg22
I0
sg23
I0
sba(ifield
Tile
p426
(dp427
g19
g20
sg21
I00
sg22
I0
sg23
I0
sbaa(lp428
(ifield
Tile
p429
(dp430
g19
g20
sg21
I00
sg22
I0
sg23
I0
sba(ifield
Tile
p431
(dp432
g19
g20
sg21
I00
sg22
I0
sg23
I0
sba(ifield
Tile
p433
(dp434
g19
g20
sg21
I00
sg22
I0
sg23
I0
sba(ifield
Tile
p435
(dp436
g19
g20
sg21
I00
sg22
I0
sg23
I0
sba(ifield
Tile
p437
(dp438
g19
g20
sg21
I00
sg22
I0
sg23
I0
sba(ifield
Tile
p439
(dp440
g19
g20
sg21
I00
sg22
I0
sg23
I0
sba(ifield
Tile
p441
(dp442
g19
g20
sg21
I00
sg22
I0
sg23
I0
sba(ifield
Tile
p443
(dp444
g19
g20
sg21
I00
sg22
I0
sg23
I0
sba(ifield
Tile
p445
(dp446
g19
g20
sg21
I00
sg22
I0
sg23
I0
sba(ifield
Tile
p447
(dp448
g19
g20
sg21
I00
sg22
I0
sg23
I0
sbaasbsg231
g234
ss.